; Function Attrs: mustprogress nounwind uwtable
define hidden void @_ZN8LogGuardD2Ev(ptr noundef nonnull readonly align 4 captures(none) dereferenceable(4) %0) unnamed_addr #0 align 2 personality ptr @__gxx_personality_v0 {
  invoke void @_ZN19OpenColorIO_v2_5dev29ResetToDefaultLoggingFunctionEv()
          to label %2 unwind label %6

2:                                                ; preds = %1
  %3 = load i32, ptr %0, align 4, !tbaa !12
  invoke void @_ZN19OpenColorIO_v2_5dev15SetLoggingLevelENS_12LoggingLevelE(i32 noundef %3)
          to label %4 unwind label %6

4:                                                ; preds = %2
  store i64 0, ptr getelementptr inbounds nuw (i8, ptr @_ZL8g_outputB5cxx11, i64 8), align 8, !tbaa !4
  %5 = load ptr, ptr @_ZL8g_outputB5cxx11, align 8, !tbaa !20
  store i8 0, ptr %5, align 1, !tbaa !21
  ret void

6:                                                ; preds = %2, %1
  %7 = landingpad { ptr, i32 }
          catch ptr null
  %8 = extractvalue { ptr, i32 } %7, 0
  tail call void @__clang_call_terminate(ptr %8) #14
  unreachable
}